target datalayout = "e-m:e-p270:32:32-p271:32:32-p272:64:64-i64:64-i128:128-f80:128-n8:16:32:64-S128"
target triple = "x86_64-pc-linux-gnu"

%struct.agxbuf = type { %union.anon.1 }
%union.anon.1 = type { %struct.anon.2 }
%struct.anon.2 = type { ptr, i64, i64, [7 x i8], i8 }

@.str.12 = private unnamed_addr constant [6 x i8] c"start\00", align 1
@.str.13 = private unnamed_addr constant [5 x i8] c"self\00", align 1
@.str.14 = private unnamed_addr constant [8 x i8] c"regular\00", align 1
@.str.15 = private unnamed_addr constant [7 x i8] c"random\00", align 1
@.str.16 = private unnamed_addr constant [4 x i8] c"%ld\00", align 1

; Function Attrs: inlinehint nounwind uwtable
define internal i64 @agxbsizeof(ptr noundef %0) #2 {
  %2 = alloca i64, align 8
  %3 = alloca ptr, align 8
  store ptr %0, ptr %3, align 8, !tbaa !44
  %4 = load ptr, ptr %3, align 8, !tbaa !44
  %5 = call zeroext i1 @agxbuf_is_inline(ptr noundef %4)
  br i1 %5, label %6, label %7

6:                                                ; preds = %1
  store i64 31, ptr %2, align 8
  br label %12

7:                                                ; preds = %1
  %8 = load ptr, ptr %3, align 8, !tbaa !44
  %9 = getelementptr inbounds nuw %struct.agxbuf, ptr %8, i32 0, i32 0
  %10 = getelementptr inbounds nuw %struct.anon.2, ptr %9, i32 0, i32 2
  %11 = load i64, ptr %10, align 8, !tbaa !50
  store i64 %11, ptr %2, align 8
  br label %12

12:                                               ; preds = %7, %6
  %13 = load i64, ptr %2, align 8
  ret i64 %13
}

; Function Attrs: inlinehint nounwind uwtable
define internal ptr @agxbstart(ptr noundef %0) #2 {
  %2 = alloca ptr, align 8
  store ptr %0, ptr %2, align 8, !tbaa !44
  %3 = load ptr, ptr %2, align 8, !tbaa !44
  %4 = call zeroext i1 @agxbuf_is_inline(ptr noundef %3)
  br i1 %4, label %5, label %9

5:                                                ; preds = %1
  %6 = load ptr, ptr %2, align 8, !tbaa !44
  %7 = getelementptr inbounds nuw %struct.agxbuf, ptr %6, i32 0, i32 0
  %8 = getelementptr inbounds [31 x i8], ptr %7, i64 0, i64 0
  br label %14

9:                                                ; preds = %1
  %10 = load ptr, ptr %2, align 8, !tbaa !44
  %11 = getelementptr inbounds nuw %struct.agxbuf, ptr %10, i32 0, i32 0
  %12 = getelementptr inbounds nuw %struct.anon.2, ptr %11, i32 0, i32 0
  %13 = load ptr, ptr %12, align 8, !tbaa !50
  br label %14

14:                                               ; preds = %9, %5
  %15 = phi ptr [ %8, %5 ], [ %13, %9 ]
  ret ptr %15
}

; Function Attrs: inlinehint nounwind uwtable
define internal void @agxbclear(ptr noundef %0) #2 {
  %2 = alloca ptr, align 8
  store ptr %0, ptr %2, align 8, !tbaa !44
  %3 = load ptr, ptr %2, align 8, !tbaa !44
  %4 = call zeroext i1 @agxbuf_is_inline(ptr noundef %3)
  br i1 %4, label %5, label %9

5:                                                ; preds = %1
  %6 = load ptr, ptr %2, align 8, !tbaa !44
  %7 = getelementptr inbounds nuw %struct.agxbuf, ptr %6, i32 0, i32 0
  %8 = getelementptr inbounds nuw %struct.anon.2, ptr %7, i32 0, i32 4
  store i8 0, ptr %8, align 1, !tbaa !50
  br label %13

9:                                                ; preds = %1
  %10 = load ptr, ptr %2, align 8, !tbaa !44
  %11 = getelementptr inbounds nuw %struct.agxbuf, ptr %10, i32 0, i32 0
  %12 = getelementptr inbounds nuw %struct.anon.2, ptr %11, i32 0, i32 1
  store i64 0, ptr %12, align 8, !tbaa !50
  br label %13

13:                                               ; preds = %9, %5
  ret void
}

; Function Attrs: inlinehint nounwind uwtable
define internal i32 @agxbputc(ptr noundef %0, i8 noundef signext %1) #2 {
  %3 = alloca ptr, align 8
  %4 = alloca i8, align 1
  %5 = alloca i64, align 8
  store ptr %0, ptr %3, align 8, !tbaa !44
  store i8 %1, ptr %4, align 1, !tbaa !50
  %6 = load ptr, ptr %3, align 8, !tbaa !44
  %7 = call i64 @agxblen(ptr noundef %6)
  %8 = load ptr, ptr %3, align 8, !tbaa !44
  %9 = call i64 @agxbsizeof(ptr noundef %8)
  %10 = icmp uge i64 %7, %9
  br i1 %10, label %11, label %13

11:                                               ; preds = %2
  %12 = load ptr, ptr %3, align 8, !tbaa !44
  call void @agxbmore(ptr noundef %12, i64 noundef 1)
  br label %13

13:                                               ; preds = %11, %2
  call void @llvm.lifetime.start.p0(i64 8, ptr %5) #15
  %14 = load ptr, ptr %3, align 8, !tbaa !44
  %15 = call i64 @agxblen(ptr noundef %14)
  store i64 %15, ptr %5, align 8, !tbaa !41
  %16 = load ptr, ptr %3, align 8, !tbaa !44
  %17 = call zeroext i1 @agxbuf_is_inline(ptr noundef %16)
  br i1 %17, label %18, label %29

18:                                               ; preds = %13
  %19 = load i8, ptr %4, align 1, !tbaa !50
  %20 = load ptr, ptr %3, align 8, !tbaa !44
  %21 = getelementptr inbounds nuw %struct.agxbuf, ptr %20, i32 0, i32 0
  %22 = load i64, ptr %5, align 8, !tbaa !41
  %23 = getelementptr inbounds nuw [31 x i8], ptr %21, i64 0, i64 %22
  store i8 %19, ptr %23, align 1, !tbaa !50
  %24 = load ptr, ptr %3, align 8, !tbaa !44
  %25 = getelementptr inbounds nuw %struct.agxbuf, ptr %24, i32 0, i32 0
  %26 = getelementptr inbounds nuw %struct.anon.2, ptr %25, i32 0, i32 4
  %27 = load i8, ptr %26, align 1, !tbaa !50
  %28 = add i8 %27, 1
  store i8 %28, ptr %26, align 1, !tbaa !50
  br label %42

29:                                               ; preds = %13
  %30 = load i8, ptr %4, align 1, !tbaa !50
  %31 = load ptr, ptr %3, align 8, !tbaa !44
  %32 = getelementptr inbounds nuw %struct.agxbuf, ptr %31, i32 0, i32 0
  %33 = getelementptr inbounds nuw %struct.anon.2, ptr %32, i32 0, i32 0
  %34 = load ptr, ptr %33, align 8, !tbaa !50
  %35 = load i64, ptr %5, align 8, !tbaa !41
  %36 = getelementptr inbounds nuw i8, ptr %34, i64 %35
  store i8 %30, ptr %36, align 1, !tbaa !50
  %37 = load ptr, ptr %3, align 8, !tbaa !44
  %38 = getelementptr inbounds nuw %struct.agxbuf, ptr %37, i32 0, i32 0
  %39 = getelementptr inbounds nuw %struct.anon.2, ptr %38, i32 0, i32 1
  %40 = load i64, ptr %39, align 8, !tbaa !50
  %41 = add i64 %40, 1
  store i64 %41, ptr %39, align 8, !tbaa !50
  br label %42

42:                                               ; preds = %29, %18
  call void @llvm.lifetime.end.p0(i64 8, ptr %5) #15
  ret i32 0
}

; Function Attrs: inlinehint nounwind uwtable
define internal i64 @agxblen(ptr noundef %0) #2 {
  %2 = alloca i64, align 8
  %3 = alloca ptr, align 8
  store ptr %0, ptr %3, align 8, !tbaa !44
  %4 = load ptr, ptr %3, align 8, !tbaa !44
  %5 = call zeroext i1 @agxbuf_is_inline(ptr noundef %4)
  br i1 %5, label %6, label %14

6:                                                ; preds = %1
  %7 = load ptr, ptr %3, align 8, !tbaa !44
  %8 = getelementptr inbounds nuw %struct.agxbuf, ptr %7, i32 0, i32 0
  %9 = getelementptr inbounds nuw %struct.anon.2, ptr %8, i32 0, i32 4
  %10 = load i8, ptr %9, align 1, !tbaa !50
  %11 = zext i8 %10 to i32
  %12 = sub nsw i32 %11, 0
  %13 = sext i32 %12 to i64
  store i64 %13, ptr %2, align 8
  br label %19

14:                                               ; preds = %1
  %15 = load ptr, ptr %3, align 8, !tbaa !44
  %16 = getelementptr inbounds nuw %struct.agxbuf, ptr %15, i32 0, i32 0
  %17 = getelementptr inbounds nuw %struct.anon.2, ptr %16, i32 0, i32 1
  %18 = load i64, ptr %17, align 8, !tbaa !50
  store i64 %18, ptr %2, align 8
  br label %19

19:                                               ; preds = %14, %6
  %20 = load i64, ptr %2, align 8
  ret i64 %20
}

; Function Attrs: inlinehint nounwind uwtable
define internal zeroext i1 @agxbuf_is_inline(ptr noundef %0) #2 {
  %2 = alloca ptr, align 8
  store ptr %0, ptr %2, align 8, !tbaa !44
  %3 = load ptr, ptr %2, align 8, !tbaa !44
  %4 = getelementptr inbounds nuw %struct.agxbuf, ptr %3, i32 0, i32 0
  %5 = getelementptr inbounds nuw %struct.anon.2, ptr %4, i32 0, i32 4
  %6 = load i8, ptr %5, align 1, !tbaa !50
  %7 = zext i8 %6 to i32
  %8 = icmp slt i32 %7, 255
  ret i1 %8
}

; Function Attrs: inlinehint nounwind uwtable
define internal zeroext i1 @gv_isupper(i32 noundef %0) #2 {
  %2 = alloca i32, align 4
  store i32 %0, ptr %2, align 4, !tbaa !47
  %3 = load i32, ptr %2, align 4, !tbaa !47
  %4 = icmp sge i32 %3, 65
  br i1 %4, label %5, label %8

5:                                                ; preds = %1
  %6 = load i32, ptr %2, align 4, !tbaa !47
  %7 = icmp sle i32 %6, 90
  br label %8

8:                                                ; preds = %5, %1
  %9 = phi i1 [ false, %1 ], [ %7, %5 ]
  ret i1 %9
}

; Function Attrs: inlinehint nounwind uwtable
define internal zeroext i1 @gv_islower(i32 noundef %0) #2 {
  %2 = alloca i32, align 4
  store i32 %0, ptr %2, align 4, !tbaa !47
  %3 = load i32, ptr %2, align 4, !tbaa !47
  %4 = icmp sge i32 %3, 97
  br i1 %4, label %5, label %8

5:                                                ; preds = %1
  %6 = load i32, ptr %2, align 4, !tbaa !47
  %7 = icmp sle i32 %6, 122
  br label %8

8:                                                ; preds = %5, %1
  %9 = phi i1 [ false, %1 ], [ %7, %5 ]
  ret i1 %9
}

; Function Attrs: inlinehint nounwind uwtable
define internal void @agxbfree(ptr noundef %0) #2 {
  %2 = alloca ptr, align 8
  store ptr %0, ptr %2, align 8, !tbaa !44
  %3 = load ptr, ptr %2, align 8, !tbaa !44
  %4 = getelementptr inbounds nuw %struct.agxbuf, ptr %3, i32 0, i32 0
  %5 = getelementptr inbounds nuw %struct.anon.2, ptr %4, i32 0, i32 4
  %6 = load i8, ptr %5, align 1, !tbaa !50
  %7 = zext i8 %6 to i32
  %8 = icmp eq i32 %7, 255
  br i1 %8, label %9, label %14

9:                                                ; preds = %1
  %10 = load ptr, ptr %2, align 8, !tbaa !44
  %11 = getelementptr inbounds nuw %struct.agxbuf, ptr %10, i32 0, i32 0
  %12 = getelementptr inbounds nuw %struct.anon.2, ptr %11, i32 0, i32 0
  %13 = load ptr, ptr %12, align 8, !tbaa !50
  call void @free(ptr noundef %13) #15
  br label %14

14:                                               ; preds = %9, %1
  ret void
}

; Function Attrs: inlinehint nounwind uwtable
define internal ptr @agxbuse(ptr noundef %0) #2 {
  %2 = alloca ptr, align 8
  store ptr %0, ptr %2, align 8, !tbaa !44
  %3 = load ptr, ptr %2, align 8, !tbaa !44
  %4 = call zeroext i1 @agxbuf_is_inline(ptr noundef %3)
  br i1 %4, label %5, label %9

5:                                                ; preds = %1
  %6 = load ptr, ptr %2, align 8, !tbaa !44
  %7 = call i64 @agxblen(ptr noundef %6)
  %8 = icmp ne i64 %7, 31
  br i1 %8, label %9, label %12

9:                                                ; preds = %5, %1
  %10 = load ptr, ptr %2, align 8, !tbaa !44
  %11 = call i32 @agxbputc(ptr noundef %10, i8 noundef signext 0)
  br label %13

12:                                               ; preds = %5
  br label %13

13:                                               ; preds = %12, %9
  %14 = load ptr, ptr %2, align 8, !tbaa !44
  call void @agxbclear(ptr noundef %14)
  %15 = load ptr, ptr %2, align 8, !tbaa !44
  %16 = call ptr @agxbstart(ptr noundef %15)
  ret ptr %16
}

; Function Attrs: inlinehint nounwind uwtable
define internal zeroext i1 @gv_isdigit(i32 noundef %0) #2 {
  %2 = alloca i32, align 4
  store i32 %0, ptr %2, align 4, !tbaa !47
  %3 = load i32, ptr %2, align 4, !tbaa !47
  %4 = icmp sge i32 %3, 48
  br i1 %4, label %5, label %8

5:                                                ; preds = %1
  %6 = load i32, ptr %2, align 4, !tbaa !47
  %7 = icmp sle i32 %6, 57
  br label %8

8:                                                ; preds = %5, %1
  %9 = phi i1 [ false, %1 ], [ %7, %5 ]
  ret i1 %9
}

; Function Attrs: inlinehint nounwind uwtable
define internal zeroext i1 @startswith(ptr noundef %0, ptr noundef %1) #2 {
  %3 = alloca ptr, align 8
  %4 = alloca ptr, align 8
  store ptr %0, ptr %3, align 8, !tbaa !49
  store ptr %1, ptr %4, align 8, !tbaa !49
  %5 = load ptr, ptr %3, align 8, !tbaa !49
  %6 = load ptr, ptr %4, align 8, !tbaa !49
  %7 = load ptr, ptr %4, align 8, !tbaa !49
  %8 = call i64 @strlen(ptr noundef %7) #18
  %9 = call i32 @strncmp(ptr noundef %5, ptr noundef %6, i64 noundef %8) #18
  %10 = icmp eq i32 %9, 0
  ret i1 %10
}

; Function Attrs: inlinehint nounwind uwtable
define internal zeroext i1 @gv_isalpha(i32 noundef %0) #2 {
  %2 = alloca i32, align 4
  store i32 %0, ptr %2, align 4, !tbaa !47
  %3 = load i32, ptr %2, align 4, !tbaa !47
  %4 = call zeroext i1 @gv_islower(i32 noundef %3)
  br i1 %4, label %8, label %5

5:                                                ; preds = %1
  %6 = load i32, ptr %2, align 4, !tbaa !47
  %7 = call zeroext i1 @gv_isupper(i32 noundef %6)
  br label %8

8:                                                ; preds = %5, %1
  %9 = phi i1 [ true, %1 ], [ %7, %5 ]
  ret i1 %9
}

; Function Attrs: nounwind uwtable
define i32 @setSeed(ptr noundef %0, i32 noundef %1, ptr noundef %2) #0 {
  %4 = alloca i32, align 4
  %5 = alloca ptr, align 8
  %6 = alloca i32, align 4
  %7 = alloca ptr, align 8
  %8 = alloca ptr, align 8
  %9 = alloca i32, align 4
  %10 = alloca i32, align 4
  %11 = alloca i64, align 8
  %12 = alloca %struct.agxbuf, align 8
  store ptr %0, ptr %5, align 8, !tbaa !57
  store i32 %1, ptr %6, align 4, !tbaa !47
  store ptr %2, ptr %7, align 8, !tbaa !99
  call void @llvm.lifetime.start.p0(i64 8, ptr %8) #15
  %13 = load ptr, ptr %5, align 8, !tbaa !57
  %14 = call ptr @agget(ptr noundef %13, ptr noundef @.str.12)
  store ptr %14, ptr %8, align 8, !tbaa !49
  call void @llvm.lifetime.start.p0(i64 4, ptr %9) #15
  %15 = load i32, ptr %6, align 4, !tbaa !47
  store i32 %15, ptr %9, align 4, !tbaa !47
  %16 = load ptr, ptr %8, align 8, !tbaa !49
  %17 = icmp ne ptr %16, null
  br i1 %17, label %18, label %23

18:                                               ; preds = %3
  %19 = load ptr, ptr %8, align 8, !tbaa !49
  %20 = load i8, ptr %19, align 1, !tbaa !50
  %21 = sext i8 %20 to i32
  %22 = icmp eq i32 %21, 0
  br i1 %22, label %23, label %25

23:                                               ; preds = %18, %3
  %24 = load i32, ptr %6, align 4, !tbaa !47
  store i32 %24, ptr %4, align 4
  store i32 1, ptr %10, align 4
  br label %88

25:                                               ; preds = %18
  %26 = load ptr, ptr %8, align 8, !tbaa !49
  %27 = load i8, ptr %26, align 1, !tbaa !50
  %28 = sext i8 %27 to i32
  %29 = call zeroext i1 @gv_isalpha(i32 noundef %28)
  br i1 %29, label %30, label %53

30:                                               ; preds = %25
  %31 = load ptr, ptr %8, align 8, !tbaa !49
  %32 = call zeroext i1 @startswith(ptr noundef %31, ptr noundef @.str.13)
  br i1 %32, label %33, label %36

33:                                               ; preds = %30
  store i32 0, ptr %9, align 4, !tbaa !47
  %34 = load ptr, ptr %8, align 8, !tbaa !49
  %35 = getelementptr inbounds nuw i8, ptr %34, i64 4
  store ptr %35, ptr %8, align 8, !tbaa !49
  br label %52

36:                                               ; preds = %30
  %37 = load ptr, ptr %8, align 8, !tbaa !49
  %38 = call zeroext i1 @startswith(ptr noundef %37, ptr noundef @.str.14)
  br i1 %38, label %39, label %42

39:                                               ; preds = %36
  store i32 1, ptr %9, align 4, !tbaa !47
  %40 = load ptr, ptr %8, align 8, !tbaa !49
  %41 = getelementptr inbounds nuw i8, ptr %40, i64 7
  store ptr %41, ptr %8, align 8, !tbaa !49
  br label %51

42:                                               ; preds = %36
  %43 = load ptr, ptr %8, align 8, !tbaa !49
  %44 = call zeroext i1 @startswith(ptr noundef %43, ptr noundef @.str.15)
  br i1 %44, label %45, label %48

45:                                               ; preds = %42
  store i32 2, ptr %9, align 4, !tbaa !47
  %46 = load ptr, ptr %8, align 8, !tbaa !49
  %47 = getelementptr inbounds nuw i8, ptr %46, i64 6
  store ptr %47, ptr %8, align 8, !tbaa !49
  br label %50

48:                                               ; preds = %42
  %49 = load i32, ptr %6, align 4, !tbaa !47
  store i32 %49, ptr %9, align 4, !tbaa !47
  br label %50

50:                                               ; preds = %48, %45
  br label %51

51:                                               ; preds = %50, %39
  br label %52

52:                                               ; preds = %51, %33
  br label %60

53:                                               ; preds = %25
  %54 = load ptr, ptr %8, align 8, !tbaa !49
  %55 = load i8, ptr %54, align 1, !tbaa !50
  %56 = sext i8 %55 to i32
  %57 = call zeroext i1 @gv_isdigit(i32 noundef %56)
  br i1 %57, label %58, label %59

58:                                               ; preds = %53
  store i32 2, ptr %9, align 4, !tbaa !47
  br label %59

59:                                               ; preds = %58, %53
  br label %60

60:                                               ; preds = %59, %52
  %61 = load i32, ptr %9, align 4, !tbaa !47
  %62 = icmp eq i32 %61, 2
  br i1 %62, label %63, label %86

63:                                               ; preds = %60
  call void @llvm.lifetime.start.p0(i64 8, ptr %11) #15
  %64 = load ptr, ptr %8, align 8, !tbaa !49
  %65 = load i8, ptr %64, align 1, !tbaa !50
  %66 = sext i8 %65 to i32
  %67 = call zeroext i1 @gv_isdigit(i32 noundef %66)
  br i1 %67, label %68, label %72

68:                                               ; preds = %63
  %69 = load ptr, ptr %8, align 8, !tbaa !49
  %70 = call i32 (ptr, ptr, ...) @__isoc99_sscanf(ptr noundef %69, ptr noundef @.str.16, ptr noundef %11) #15
  %71 = icmp slt i32 %70, 1
  br i1 %71, label %72, label %83

72:                                               ; preds = %68, %63
  %73 = call i32 @getpid() #15
  %74 = call i64 @time(ptr noundef null) #15
  %75 = trunc i64 %74 to i32
  %76 = xor i32 %73, %75
  %77 = zext i32 %76 to i64
  store i64 %77, ptr %11, align 8, !tbaa !41
  call void @llvm.lifetime.start.p0(i64 32, ptr %12) #15
  call void @llvm.memset.p0.i64(ptr align 8 %12, i8 0, i64 32, i1 false)
  %78 = load i64, ptr %11, align 8, !tbaa !41
  %79 = call i32 (ptr, ptr, ...) @agxbprint(ptr noundef %12, ptr noundef @.str.16, i64 noundef %78)
  %80 = load ptr, ptr %5, align 8, !tbaa !57
  %81 = call ptr @agxbuse(ptr noundef %12)
  %82 = call i32 @agset(ptr noundef %80, ptr noundef @.str.12, ptr noundef %81)
  call void @agxbfree(ptr noundef %12)
  call void @llvm.lifetime.end.p0(i64 32, ptr %12) #15
  br label %83

83:                                               ; preds = %72, %68
  %84 = load i64, ptr %11, align 8, !tbaa !41
  %85 = load ptr, ptr %7, align 8, !tbaa !99
  store i64 %84, ptr %85, align 8, !tbaa !41
  call void @llvm.lifetime.end.p0(i64 8, ptr %11) #15
  br label %86

86:                                               ; preds = %83, %60
  %87 = load i32, ptr %9, align 4, !tbaa !47
  store i32 %87, ptr %4, align 4
  store i32 1, ptr %10, align 4
  br label %88

88:                                               ; preds = %86, %23
  call void @llvm.lifetime.end.p0(i64 4, ptr %9) #15
  call void @llvm.lifetime.end.p0(i64 8, ptr %8) #15
  %89 = load i32, ptr %4, align 4
  ret i32 %89
}