; Function Attrs: nounwind uwtable
define noundef i32 @setSeed(ptr noundef %0, i32 noundef %1, ptr noundef writeonly captures(none) %2) local_unnamed_addr #0 {
  %4 = alloca i64, align 8
  %5 = alloca %struct.agxbuf, align 8
  %6 = tail call ptr @agget(ptr noundef %0, ptr noundef nonnull @.str.12) #22
  %.not = icmp eq ptr %6, null
  br i1 %.not, label %.thread34, label %7

7:                                                ; preds = %3
  %8 = load i8, ptr %6, align 1, !tbaa !42
  %9 = icmp eq i8 %8, 0
  br i1 %9, label %.thread34, label %10

10:                                               ; preds = %7
  %11 = sext i8 %8 to i32
  %12 = and i32 %11, -33
  %13 = add nsw i32 %12, -65
  %14 = icmp ult i32 %13, 26
  br i1 %14, label %15, label %25

15:                                               ; preds = %10
  %16 = tail call i32 @strncmp(ptr noundef nonnull readonly dereferenceable(1) %6, ptr noundef nonnull dereferenceable(5) @.str.13, i64 noundef 4) #26
  %17 = icmp eq i32 %16, 0
  br i1 %17, label %.thread34, label %18

18:                                               ; preds = %15
  %19 = tail call i32 @strncmp(ptr noundef nonnull readonly dereferenceable(1) %6, ptr noundef nonnull dereferenceable(8) @.str.14, i64 noundef 7) #26
  %20 = icmp eq i32 %19, 0
  br i1 %20, label %.thread34, label %21

21:                                               ; preds = %18
  %22 = tail call i32 @strncmp(ptr noundef nonnull readonly dereferenceable(1) %6, ptr noundef nonnull dereferenceable(7) @.str.15, i64 noundef 6) #26
  %23 = icmp eq i32 %22, 0
  %24 = getelementptr inbounds nuw i8, ptr %6, i64 6
  br i1 %23, label %.thread, label %29

25:                                               ; preds = %10
  %26 = add nsw i32 %11, -48
  %27 = icmp ult i32 %26, 10
  %28 = icmp eq i32 %1, 2
  %or.cond = or i1 %28, %27
  br i1 %or.cond, label %.thread, label %.thread34

29:                                               ; preds = %21
  %.old = icmp eq i32 %1, 2
  br i1 %.old, label %.thread, label %.thread34

.thread:                                          ; preds = %21, %25, %29
  %.02030 = phi ptr [ %6, %29 ], [ %6, %25 ], [ %24, %21 ]
  call void @llvm.lifetime.start.p0(i64 8, ptr nonnull %4) #22
  %30 = load i8, ptr %.02030, align 1, !tbaa !42
  %31 = sext i8 %30 to i32
  %32 = add nsw i32 %31, -48
  %33 = icmp ult i32 %32, 10
  br i1 %33, label %34, label %37

34:                                               ; preds = %.thread
  %35 = call i32 (ptr, ptr, ...) @__isoc99_sscanf(ptr noundef nonnull %.02030, ptr noundef nonnull @.str.16, ptr noundef nonnull %4) #22
  %36 = icmp slt i32 %35, 1
  br i1 %36, label %37, label %68

37:                                               ; preds = %34, %.thread
  %38 = call i32 @getpid() #22
  %39 = call i64 @time(ptr noundef null) #22
  %40 = trunc i64 %39 to i32
  %41 = xor i32 %38, %40
  %42 = zext i32 %41 to i64
  store i64 %42, ptr %4, align 8, !tbaa !104
  call void @llvm.lifetime.start.p0(i64 32, ptr nonnull %5) #22
  call void @llvm.memset.p0.i64(ptr noundef nonnull align 8 dereferenceable(32) %5, i8 0, i64 32, i1 false)
  call void (ptr, ptr, ...) @agxbprint(ptr noundef %5, ptr nonnull poison, i64 noundef %42)
  %43 = getelementptr inbounds nuw i8, ptr %5, i64 31
  %.val.i = load i8, ptr %43, align 1, !tbaa !42
  switch i8 %.val.i, label %agxblen.exit.i.i [
    i8 -1, label %45
    i8 31, label %agxbclear.exit.thread.i
  ]

agxblen.exit.i.i:                                 ; preds = %37
  %44 = zext i8 %.val.i to i64
  br label %agxbsizeof.exit.i.i

45:                                               ; preds = %37
  %46 = getelementptr inbounds nuw i8, ptr %5, i64 8
  %47 = load i64, ptr %46, align 8, !tbaa !42
  %48 = getelementptr inbounds nuw i8, ptr %5, i64 16
  %49 = load i64, ptr %48, align 8, !tbaa !42
  br label %agxbsizeof.exit.i.i

agxbsizeof.exit.i.i:                              ; preds = %45, %agxblen.exit.i.i
  %.0.i20.i.i = phi i64 [ %47, %45 ], [ %44, %agxblen.exit.i.i ]
  %.0.i14.i.i = phi i64 [ %49, %45 ], [ 31, %agxblen.exit.i.i ]
  %.not.i5.i = icmp ult i64 %.0.i20.i.i, %.0.i14.i.i
  br i1 %.not.i5.i, label %51, label %50

50:                                               ; preds = %agxbsizeof.exit.i.i
  call fastcc void @agxbmore(ptr noundef nonnull %5, i64 noundef 1)
  %.val.i15.pre.i.i = load i8, ptr %43, align 1, !tbaa !42
  br label %51

51:                                               ; preds = %50, %agxbsizeof.exit.i.i
  %.val.i6.pr.i = phi i8 [ %.val.i15.pre.i.i, %50 ], [ %.val.i, %agxbsizeof.exit.i.i ]
  %.not.i16.i.i = icmp eq i8 %.val.i6.pr.i, -1
  br i1 %.not.i16.i.i, label %agxbputc.exit.i.thread, label %agxbputc.exit.i

agxbputc.exit.i.thread:                           ; preds = %51
  %52 = getelementptr inbounds nuw i8, ptr %5, i64 8
  %53 = load i64, ptr %52, align 8, !tbaa !42
  %54 = load ptr, ptr %5, align 8, !tbaa !42
  %55 = getelementptr inbounds nuw i8, ptr %54, i64 %53
  store i8 0, ptr %55, align 1, !tbaa !42
  br label %61

agxbputc.exit.i:                                  ; preds = %51
  %56 = zext i8 %.val.i6.pr.i to i64
  %57 = getelementptr inbounds nuw [31 x i8], ptr %5, i64 0, i64 %56
  store i8 0, ptr %57, align 1, !tbaa !42
  %58 = load i8, ptr %43, align 1, !tbaa !42
  %59 = add i8 %58, 1
  store i8 %59, ptr %43, align 1, !tbaa !42
  %60 = icmp eq i8 %59, -1
  br i1 %60, label %61, label %agxbclear.exit.thread.i

agxbclear.exit.thread.i:                          ; preds = %agxbputc.exit.i, %37
  store i8 0, ptr %43, align 1, !tbaa !42
  br label %agxbuse.exit

61:                                               ; preds = %agxbputc.exit.i.thread, %agxbputc.exit.i
  %62 = getelementptr inbounds nuw i8, ptr %5, i64 8
  store i64 0, ptr %62, align 8, !tbaa !42
  %63 = load ptr, ptr %5, align 8, !tbaa !42
  br label %agxbuse.exit

agxbuse.exit:                                     ; preds = %agxbclear.exit.thread.i, %61
  %64 = phi ptr [ %63, %61 ], [ %5, %agxbclear.exit.thread.i ]
  %65 = call i32 @agset(ptr noundef %0, ptr noundef nonnull @.str.12, ptr noundef %64) #22
  %.val26 = load i8, ptr %43, align 1, !tbaa !42
  %66 = icmp eq i8 %.val26, -1
  br i1 %66, label %67, label %agxbfree.exit

67:                                               ; preds = %agxbuse.exit
  %.val = load ptr, ptr %5, align 8
  call void @free(ptr noundef %.val) #22
  br label %agxbfree.exit

agxbfree.exit:                                    ; preds = %agxbuse.exit, %67
  call void @llvm.lifetime.end.p0(i64 32, ptr nonnull %5) #22
  br label %68

68:                                               ; preds = %agxbfree.exit, %34
  %69 = load i64, ptr %4, align 8, !tbaa !104
  store i64 %69, ptr %2, align 8, !tbaa !104
  call void @llvm.lifetime.end.p0(i64 8, ptr nonnull %4) #22
  br label %.thread34

.thread34:                                        ; preds = %25, %18, %15, %29, %68, %3, %7
  %.021 = phi i32 [ %1, %7 ], [ %1, %3 ], [ 2, %68 ], [ %1, %29 ], [ 0, %15 ], [ 1, %18 ], [ %1, %25 ]
  ret i32 %.021
}